target datalayout = "e-m:e-p270:32:32-p271:32:32-p272:64:64-i64:64-i128:128-f80:128-n8:16:32:64-S128"
target triple = "x86_64-pc-linux-gnu"

%struct.rb_data_type_struct = type { ptr, %struct.anon.19, ptr, ptr, i64 }
%struct.anon.19 = type { ptr, ptr, ptr, ptr, [1 x ptr] }
%union.pthread_mutex_t = type { %struct.__pthread_mutex_s }
%struct.__pthread_mutex_s = type { i32, i32, i32, i32, i32, i16, i16, %struct.__pthread_internal_list }
%struct.__pthread_internal_list = type { ptr, ptr }
%struct.ccan_list_head = type { %struct.ccan_list_node }
%struct.ccan_list_node = type { ptr, ptr }
%struct.rb_thread_struct = type { %struct.ccan_list_node, i64, ptr, ptr, ptr, ptr, %struct.rb_thread_sched_item, i8, i32, i64, ptr, i64, i64, i8, i8, i32, ptr, i64, i64, i64, i64, %union.pthread_mutex_t, %struct.rb_unblock_callback, i64, ptr, %struct.ccan_list_head, ptr, %union.anon, i32, i64, ptr, i64, i32, i64, ptr, %struct.rb_ext_config }
%struct.rb_thread_sched_item = type { %struct.anon.7, %struct.rb_thread_sched_waiting, i8, i8, ptr, ptr }
%struct.anon.7 = type { %struct.ccan_list_node, %struct.ccan_list_node, %struct.ccan_list_node, %struct.ccan_list_node, %struct.ccan_list_node }
%struct.rb_thread_sched_waiting = type { i32, %struct.anon.8, %struct.ccan_list_node }
%struct.anon.8 = type { i64, i32, i32 }
%struct.rb_unblock_callback = type { ptr, ptr }
%union.anon = type { %struct.anon.9 }
%struct.anon.9 = type { i64, i64, i32 }
%struct.rb_ext_config = type { i8 }
%struct.RBasic = type { i64, i64 }
%struct.RArray = type { %struct.RBasic, %union.anon.27 }
%union.anon.27 = type { %struct.anon.28 }
%struct.anon.28 = type { i64, %union.anon.29, ptr }
%union.anon.29 = type { i64 }

@.str.76 = private unnamed_addr constant [4 x i8] c"run\00", align 1
@ruby_threadptr_data_type = external constant %struct.rb_data_type_struct, align 8
@.str.237 = private unnamed_addr constant [9 x i8] c"aborting\00", align 1
@.str.238 = private unnamed_addr constant [14 x i8] c"sleep_forever\00", align 1
@.str.239 = private unnamed_addr constant [6 x i8] c"sleep\00", align 1
@.str.240 = private unnamed_addr constant [5 x i8] c"dead\00", align 1
@.str.241 = private unnamed_addr constant [8 x i8] c"unknown\00", align 1
@.str.244 = private unnamed_addr constant [10 x i8] c"#<%li\0B:%p\00", align 1
@.str.245 = private unnamed_addr constant [6 x i8] c"@%li\0B\00", align 1
@.str.246 = private unnamed_addr constant [11 x i8] c" %li\0B:%li\0B\00", align 1
@.str.247 = private unnamed_addr constant [5 x i8] c" %s>\00", align 1

; Function Attrs: inlinehint nounwind sspstrong willreturn memory(read) uwtable
define internal i64 @RB_FL_TEST_RAW(i64 noundef %0, i64 noundef %1) #11 {
  %3 = alloca i64, align 8
  %4 = alloca i64, align 8
  store i64 %0, ptr %3, align 8, !tbaa !22
  store i64 %1, ptr %4, align 8, !tbaa !22
  %5 = load i64, ptr %3, align 8, !tbaa !22
  %6 = inttoptr i64 %5 to ptr
  %7 = getelementptr inbounds nuw %struct.RBasic, ptr %6, i32 0, i32 0
  %8 = load i64, ptr %7, align 8, !tbaa !364
  %9 = load i64, ptr %4, align 8, !tbaa !22
  %10 = and i64 %8, %9
  ret i64 %10
}

; Function Attrs: inlinehint nounwind sspstrong willreturn memory(read) uwtable
define internal zeroext i1 @RB_FL_ANY_RAW(i64 noundef %0, i64 noundef %1) #11 {
  %3 = alloca i64, align 8
  %4 = alloca i64, align 8
  store i64 %0, ptr %3, align 8, !tbaa !22
  store i64 %1, ptr %4, align 8, !tbaa !22
  %5 = load i64, ptr %3, align 8, !tbaa !22
  %6 = load i64, ptr %4, align 8, !tbaa !22
  %7 = call i64 @RB_FL_TEST_RAW(i64 noundef %5, i64 noundef %6) #38
  %8 = icmp ne i64 %7, 0
  ret i1 %8
}

; Function Attrs: inlinehint nounwind sspstrong willreturn memory(read) uwtable
define internal ptr @rb_array_const_ptr(i64 noundef %0) #11 {
  %2 = alloca ptr, align 8
  %3 = alloca i64, align 8
  store i64 %0, ptr %3, align 8, !tbaa !22
  %4 = load i64, ptr %3, align 8, !tbaa !22
  %5 = call zeroext i1 @RB_FL_ANY_RAW(i64 noundef %4, i64 noundef 8192) #38
  br i1 %5, label %6, label %11

6:                                                ; preds = %1
  %7 = load i64, ptr %3, align 8, !tbaa !22
  %8 = inttoptr i64 %7 to ptr
  %9 = getelementptr inbounds nuw %struct.RArray, ptr %8, i32 0, i32 1
  %10 = getelementptr inbounds [1 x i64], ptr %9, i64 0, i64 0
  store ptr %10, ptr %2, align 8
  br label %17

11:                                               ; preds = %1
  %12 = load i64, ptr %3, align 8, !tbaa !22
  %13 = inttoptr i64 %12 to ptr
  %14 = getelementptr inbounds nuw %struct.RArray, ptr %13, i32 0, i32 1
  %15 = getelementptr inbounds nuw %struct.anon.28, ptr %14, i32 0, i32 2
  %16 = load ptr, ptr %15, align 8, !tbaa !198
  store ptr %16, ptr %2, align 8
  br label %17

17:                                               ; preds = %11, %6
  %18 = load ptr, ptr %2, align 8
  ret ptr %18
}

; Function Attrs: inlinehint nounwind sspstrong willreturn memory(read) uwtable
define internal i64 @RARRAY_AREF(i64 noundef %0, i64 noundef %1) #11 {
  %3 = alloca i64, align 8
  %4 = alloca i64, align 8
  %5 = alloca i64, align 8
  store i64 %0, ptr %3, align 8, !tbaa !22
  store i64 %1, ptr %4, align 8, !tbaa !22
  call void @llvm.lifetime.start.p0(i64 8, ptr %5) #16
  %6 = load i64, ptr %3, align 8, !tbaa !22
  %7 = call ptr @rb_array_const_ptr(i64 noundef %6) #38
  %8 = load i64, ptr %4, align 8, !tbaa !22
  %9 = getelementptr i64, ptr %7, i64 %8
  %10 = load i64, ptr %9, align 8, !tbaa !22
  store i64 %10, ptr %5, align 8, !tbaa !22
  %11 = load i64, ptr %5, align 8, !tbaa !22
  call void @llvm.lifetime.end.p0(i64 8, ptr %5) #16
  ret i64 %11
}

; Function Attrs: nounwind sspstrong uwtable
define internal i64 @threadptr_invoke_proc_location(ptr noundef %0) #0 {
  %2 = alloca i64, align 8
  %3 = alloca ptr, align 8
  store ptr %0, ptr %3, align 8, !tbaa !12
  %4 = load ptr, ptr %3, align 8, !tbaa !12
  %5 = getelementptr inbounds nuw %struct.rb_thread_struct, ptr %4, i32 0, i32 28
  %6 = load i32, ptr %5, align 8, !tbaa !231
  %7 = icmp eq i32 %6, 1
  br i1 %7, label %8, label %14

8:                                                ; preds = %1
  %9 = load ptr, ptr %3, align 8, !tbaa !12
  %10 = getelementptr inbounds nuw %struct.rb_thread_struct, ptr %9, i32 0, i32 27
  %11 = getelementptr inbounds nuw %struct.anon.9, ptr %10, i32 0, i32 0
  %12 = load i64, ptr %11, align 8, !tbaa !198
  %13 = call i64 @rb_proc_location(i64 noundef %12)
  store i64 %13, ptr %2, align 8
  br label %15

14:                                               ; preds = %1
  store i64 4, ptr %2, align 8
  br label %15

15:                                               ; preds = %14, %8
  %16 = load i64, ptr %2, align 8
  ret i64 %16
}

; Function Attrs: inlinehint nounwind sspstrong willreturn memory(none) uwtable
define internal zeroext i1 @RB_NIL_P(i64 noundef %0) #14 {
  %2 = alloca i64, align 8
  store i64 %0, ptr %2, align 8, !tbaa !22
  %3 = load i64, ptr %2, align 8, !tbaa !22
  %4 = icmp eq i64 %3, 4
  ret i1 %4
}

; Function Attrs: nounwind sspstrong uwtable
define internal ptr @thread_status_name(ptr noundef %0, i32 noundef %1) #0 {
  %3 = alloca ptr, align 8
  %4 = alloca ptr, align 8
  %5 = alloca i32, align 4
  store ptr %0, ptr %4, align 8, !tbaa !12
  store i32 %1, ptr %5, align 4, !tbaa !15
  %6 = load ptr, ptr %4, align 8, !tbaa !12
  %7 = getelementptr inbounds nuw %struct.rb_thread_struct, ptr %6, i32 0, i32 13
  %8 = load i8, ptr %7, align 8
  %9 = and i8 %8, 3
  %10 = zext i8 %9 to i32
  switch i32 %10, label %27 [
    i32 0, label %11
    i32 2, label %20
    i32 1, label %25
    i32 3, label %26
  ]

11:                                               ; preds = %2
  %12 = load ptr, ptr %4, align 8, !tbaa !12
  %13 = getelementptr inbounds nuw %struct.rb_thread_struct, ptr %12, i32 0, i32 13
  %14 = load i8, ptr %13, align 8
  %15 = lshr i8 %14, 3
  %16 = and i8 %15, 1
  %17 = zext i8 %16 to i32
  %18 = icmp ne i32 %17, 0
  %19 = select i1 %18, ptr @.str.237, ptr @.str.76
  store ptr %19, ptr %3, align 8
  br label %28

20:                                               ; preds = %2
  %21 = load i32, ptr %5, align 4, !tbaa !15
  %22 = icmp ne i32 %21, 0
  br i1 %22, label %23, label %24

23:                                               ; preds = %20
  store ptr @.str.238, ptr %3, align 8
  br label %28

24:                                               ; preds = %20
  br label %25

25:                                               ; preds = %2, %24
  store ptr @.str.239, ptr %3, align 8
  br label %28

26:                                               ; preds = %2
  store ptr @.str.240, ptr %3, align 8
  br label %28

27:                                               ; preds = %2
  store ptr @.str.241, ptr %3, align 8
  br label %28

28:                                               ; preds = %27, %26, %25, %23, %11
  %29 = load ptr, ptr %3, align 8
  ret ptr %29
}

; Function Attrs: inlinehint nounwind sspstrong uwtable
define internal ptr @rb_thread_ptr(i64 noundef %0) #1 {
  %2 = alloca i64, align 8
  store i64 %0, ptr %2, align 8, !tbaa !22
  %3 = load i64, ptr %2, align 8, !tbaa !22
  %4 = call ptr @rb_check_typeddata(i64 noundef %3, ptr noundef @ruby_threadptr_data_type)
  ret ptr %4
}

; Function Attrs: nounwind sspstrong uwtable
define internal i64 @rb_thread_to_s(i64 noundef %0) #0 {
  %2 = alloca i64, align 8
  %3 = alloca i64, align 8
  %4 = alloca ptr, align 8
  %5 = alloca ptr, align 8
  %6 = alloca i64, align 8
  %7 = alloca i64, align 8
  store i64 %0, ptr %2, align 8, !tbaa !22
  call void @llvm.lifetime.start.p0(i64 8, ptr %3) #16
  %8 = load i64, ptr %2, align 8, !tbaa !22
  %9 = call i64 @rb_obj_class(i64 noundef %8)
  %10 = call i64 @rb_class_path(i64 noundef %9)
  store i64 %10, ptr %3, align 8, !tbaa !22
  call void @llvm.lifetime.start.p0(i64 8, ptr %4) #16
  %11 = load i64, ptr %2, align 8, !tbaa !22
  %12 = call ptr @rb_thread_ptr(i64 noundef %11)
  store ptr %12, ptr %4, align 8, !tbaa !12
  call void @llvm.lifetime.start.p0(i64 8, ptr %5) #16
  call void @llvm.lifetime.start.p0(i64 8, ptr %6) #16
  call void @llvm.lifetime.start.p0(i64 8, ptr %7) #16
  %13 = load ptr, ptr %4, align 8, !tbaa !12
  %14 = call ptr @thread_status_name(ptr noundef %13, i32 noundef 1)
  store ptr %14, ptr %5, align 8, !tbaa !17
  %15 = load i64, ptr %3, align 8, !tbaa !22
  %16 = load i64, ptr %2, align 8, !tbaa !22
  %17 = inttoptr i64 %16 to ptr
  %18 = call i64 (ptr, ...) @rb_sprintf(ptr noundef @.str.244, i64 noundef %15, ptr noundef %17)
  store i64 %18, ptr %6, align 8, !tbaa !22
  %19 = load ptr, ptr %4, align 8, !tbaa !12
  %20 = getelementptr inbounds nuw %struct.rb_thread_struct, ptr %19, i32 0, i32 33
  %21 = load i64, ptr %20, align 8, !tbaa !374
  %22 = call zeroext i1 @RB_NIL_P(i64 noundef %21) #37
  br i1 %22, label %29, label %23

23:                                               ; preds = %1
  %24 = load i64, ptr %6, align 8, !tbaa !22
  %25 = load ptr, ptr %4, align 8, !tbaa !12
  %26 = getelementptr inbounds nuw %struct.rb_thread_struct, ptr %25, i32 0, i32 33
  %27 = load i64, ptr %26, align 8, !tbaa !374
  %28 = call i64 (i64, ptr, ...) @rb_str_catf(i64 noundef %24, ptr noundef @.str.245, i64 noundef %27)
  br label %29

29:                                               ; preds = %23, %1
  %30 = load ptr, ptr %4, align 8, !tbaa !12
  %31 = call i64 @threadptr_invoke_proc_location(ptr noundef %30)
  store i64 %31, ptr %7, align 8, !tbaa !22
  %32 = icmp ne i64 %31, 4
  br i1 %32, label %33, label %40

33:                                               ; preds = %29
  %34 = load i64, ptr %6, align 8, !tbaa !22
  %35 = load i64, ptr %7, align 8, !tbaa !22
  %36 = call i64 @RARRAY_AREF(i64 noundef %35, i64 noundef 0) #38
  %37 = load i64, ptr %7, align 8, !tbaa !22
  %38 = call i64 @RARRAY_AREF(i64 noundef %37, i64 noundef 1) #38
  %39 = call i64 (i64, ptr, ...) @rb_str_catf(i64 noundef %34, ptr noundef @.str.246, i64 noundef %36, i64 noundef %38)
  br label %40

40:                                               ; preds = %33, %29
  %41 = load i64, ptr %6, align 8, !tbaa !22
  %42 = load ptr, ptr %5, align 8, !tbaa !17
  %43 = call i64 (i64, ptr, ...) @rb_str_catf(i64 noundef %41, ptr noundef @.str.247, ptr noundef %42)
  %44 = load i64, ptr %6, align 8, !tbaa !22
  call void @llvm.lifetime.end.p0(i64 8, ptr %7) #16
  call void @llvm.lifetime.end.p0(i64 8, ptr %6) #16
  call void @llvm.lifetime.end.p0(i64 8, ptr %5) #16
  call void @llvm.lifetime.end.p0(i64 8, ptr %4) #16
  call void @llvm.lifetime.end.p0(i64 8, ptr %3) #16
  ret i64 %44
}