; Function Attrs: nounwind sspstrong uwtable
define internal i64 @rb_thread_to_s(i64 noundef %0) #0 {
  %2 = tail call i64 @rb_obj_class(i64 noundef %0) #17
  %3 = tail call i64 @rb_class_path(i64 noundef %2) #17
  %4 = tail call ptr @rb_check_typeddata(i64 noundef %0, ptr noundef nonnull @ruby_threadptr_data_type) #17
  %5 = getelementptr i8, ptr %4, i64 240
  %.val = load i8, ptr %5, align 8
  %6 = and i8 %.val, 3
  switch i8 %6, label %default.unreachable [
    i8 0, label %7
    i8 2, label %10
    i8 1, label %11
    i8 3, label %thread_status_name.exit
  ]

7:                                                ; preds = %1
  %8 = and i8 %.val, 8
  %.not3.i = icmp eq i8 %8, 0
  %9 = select i1 %.not3.i, ptr @.str.76, ptr @.str.237
  br label %thread_status_name.exit

10:                                               ; preds = %1
  br label %thread_status_name.exit

11:                                               ; preds = %1
  br label %thread_status_name.exit

default.unreachable:                              ; preds = %1
  unreachable

thread_status_name.exit:                          ; preds = %1, %7, %10, %11
  %.0.i = phi ptr [ @.str.239, %11 ], [ %9, %7 ], [ @.str.238, %10 ], [ @.str.240, %1 ]
  %12 = inttoptr i64 %0 to ptr
  %13 = tail call i64 (ptr, ...) @rb_sprintf(ptr noundef nonnull @.str.244, i64 noundef %3, ptr noundef %12) #17
  %14 = getelementptr inbounds nuw i8, ptr %4, i64 448
  %15 = load i64, ptr %14, align 8, !tbaa !359
  %16 = icmp eq i64 %15, 4
  br i1 %16, label %19, label %17

17:                                               ; preds = %thread_status_name.exit
  %18 = tail call i64 (i64, ptr, ...) @rb_str_catf(i64 noundef %13, ptr noundef nonnull @.str.245, i64 noundef %15) #17
  br label %19

19:                                               ; preds = %17, %thread_status_name.exit
  %20 = getelementptr inbounds nuw i8, ptr %4, i64 408
  %21 = load i32, ptr %20, align 8, !tbaa !230
  %22 = icmp eq i32 %21, 1
  br i1 %22, label %threadptr_invoke_proc_location.exit, label %threadptr_invoke_proc_location.exit.thread

threadptr_invoke_proc_location.exit:              ; preds = %19
  %23 = getelementptr inbounds nuw i8, ptr %4, i64 384
  %24 = load i64, ptr %23, align 8, !tbaa !44
  %25 = tail call i64 @rb_proc_location(i64 noundef %24) #17
  %.not = icmp eq i64 %25, 4
  br i1 %.not, label %threadptr_invoke_proc_location.exit.thread, label %26

26:                                               ; preds = %threadptr_invoke_proc_location.exit
  %27 = inttoptr i64 %25 to ptr
  %28 = load i64, ptr %27, align 8, !tbaa !42
  %29 = and i64 %28, 8192
  %.not.i.i = icmp eq i64 %29, 0
  br i1 %.not.i.i, label %32, label %30

30:                                               ; preds = %26
  %31 = getelementptr inbounds nuw i8, ptr %27, i64 16
  br label %RARRAY_AREF.exit17

32:                                               ; preds = %26
  %33 = getelementptr inbounds nuw i8, ptr %27, i64 32
  %34 = load ptr, ptr %33, align 8, !tbaa !44
  br label %RARRAY_AREF.exit17

RARRAY_AREF.exit17:                               ; preds = %30, %32
  %.in = phi ptr [ %31, %30 ], [ %34, %32 ]
  %35 = load i64, ptr %.in, align 8, !tbaa !145
  %36 = getelementptr i8, ptr %.in, i64 8
  %37 = load i64, ptr %36, align 8, !tbaa !145
  %38 = tail call i64 (i64, ptr, ...) @rb_str_catf(i64 noundef %13, ptr noundef nonnull @.str.246, i64 noundef %35, i64 noundef %37) #17
  br label %threadptr_invoke_proc_location.exit.thread

threadptr_invoke_proc_location.exit.thread:       ; preds = %19, %RARRAY_AREF.exit17, %threadptr_invoke_proc_location.exit
  %39 = tail call i64 (i64, ptr, ...) @rb_str_catf(i64 noundef %13, ptr noundef nonnull @.str.247, ptr noundef nonnull %.0.i) #17
  ret i64 %13
}